; Function Attrs: nounwind uwtable
define ptr @l___private_Lean_Compiler_LCNF_CompilerM_0__Lean_Compiler_LCNF_normExprImp_goApp(ptr noundef readonly captures(none) %0, i8 noundef zeroext %1, ptr noundef %2) local_unnamed_addr #2 {
  %4 = ptrtoint ptr %2 to i64
  %5 = and i64 %4, 1
  %.not.i62 = icmp eq i64 %5, 0
  br i1 %.not.i62, label %9, label %6

6:                                                ; preds = %3
  %7 = lshr i64 %4, 1
  %8 = trunc i64 %7 to i32
  br label %lean_obj_tag.exit

9:                                                ; preds = %3
  %10 = getelementptr i8, ptr %2, i64 4
  %.val.i = load i32, ptr %10, align 4
  %11 = lshr i32 %.val.i, 24
  br label %lean_obj_tag.exit

lean_obj_tag.exit:                                ; preds = %6, %9
  %.0.i = phi i32 [ %8, %6 ], [ %11, %9 ]
  %12 = icmp eq i32 %.0.i, 5
  br i1 %12, label %13, label %104

13:                                               ; preds = %lean_obj_tag.exit
  %14 = getelementptr inbounds nuw i8, ptr %2, i64 8
  %15 = load ptr, ptr %14, align 8, !tbaa !4
  %16 = ptrtoint ptr %15 to i64
  %17 = and i64 %16, 1
  %.not = icmp eq i64 %17, 0
  br i1 %.not, label %18, label %lean_inc.exit49

18:                                               ; preds = %13
  %.val.i63 = load i32, ptr %15, align 4, !tbaa !8
  %19 = icmp sgt i32 %.val.i63, 0
  br i1 %19, label %20, label %22, !prof !11

20:                                               ; preds = %18
  %21 = add nuw i32 %.val.i63, 1
  store i32 %21, ptr %15, align 4, !tbaa !8
  br label %lean_inc.exit49

22:                                               ; preds = %18
  %.not.i64 = icmp eq i32 %.val.i63, 0
  br i1 %.not.i64, label %lean_inc.exit49, label %23

23:                                               ; preds = %22
  tail call void @lean_inc_ref_cold(ptr noundef nonnull %15) #6
  br label %lean_inc.exit49

lean_inc.exit49:                                  ; preds = %23, %22, %20, %13
  %24 = getelementptr inbounds nuw i8, ptr %2, i64 16
  %25 = load ptr, ptr %24, align 8, !tbaa !4
  %26 = ptrtoint ptr %25 to i64
  %27 = and i64 %26, 1
  %.not74 = icmp eq i64 %27, 0
  br i1 %.not74, label %28, label %lean_inc.exit48

28:                                               ; preds = %lean_inc.exit49
  %.val.i65 = load i32, ptr %25, align 4, !tbaa !8
  %29 = icmp sgt i32 %.val.i65, 0
  br i1 %29, label %30, label %32, !prof !11

30:                                               ; preds = %28
  %31 = add nuw i32 %.val.i65, 1
  store i32 %31, ptr %25, align 4, !tbaa !8
  br label %lean_inc.exit48

32:                                               ; preds = %28
  %.not.i66 = icmp eq i32 %.val.i65, 0
  br i1 %.not.i66, label %lean_inc.exit48, label %33

33:                                               ; preds = %32
  tail call void @lean_inc_ref_cold(ptr noundef nonnull %25) #6
  br label %lean_inc.exit48

lean_inc.exit48:                                  ; preds = %33, %32, %30, %lean_inc.exit49
  br i1 %.not, label %34, label %lean_inc.exit47

34:                                               ; preds = %lean_inc.exit48
  %.val.i68 = load i32, ptr %15, align 4, !tbaa !8
  %35 = icmp sgt i32 %.val.i68, 0
  br i1 %35, label %36, label %38, !prof !11

36:                                               ; preds = %34
  %37 = add nuw i32 %.val.i68, 1
  store i32 %37, ptr %15, align 4, !tbaa !8
  br label %lean_inc.exit47

38:                                               ; preds = %34
  %.not.i69 = icmp eq i32 %.val.i68, 0
  br i1 %.not.i69, label %lean_inc.exit47, label %39

39:                                               ; preds = %38
  tail call void @lean_inc_ref_cold(ptr noundef nonnull %15) #6
  br label %lean_inc.exit47

lean_inc.exit47:                                  ; preds = %39, %38, %36, %lean_inc.exit48
  %40 = tail call ptr @l___private_Lean_Compiler_LCNF_CompilerM_0__Lean_Compiler_LCNF_normExprImp_goApp(ptr noundef %0, i8 noundef zeroext %1, ptr noundef %15)
  br i1 %.not74, label %41, label %lean_inc.exit

41:                                               ; preds = %lean_inc.exit47
  %.val.i71 = load i32, ptr %25, align 4, !tbaa !8
  %42 = icmp sgt i32 %.val.i71, 0
  br i1 %42, label %43, label %45, !prof !11

43:                                               ; preds = %41
  %44 = add nuw i32 %.val.i71, 1
  store i32 %44, ptr %25, align 4, !tbaa !8
  br label %lean_inc.exit

45:                                               ; preds = %41
  %.not.i72 = icmp eq i32 %.val.i71, 0
  br i1 %.not.i72, label %lean_inc.exit, label %46

46:                                               ; preds = %45
  tail call void @lean_inc_ref_cold(ptr noundef nonnull %25) #6
  br label %lean_inc.exit

lean_inc.exit:                                    ; preds = %46, %45, %43, %lean_inc.exit47
  %47 = tail call ptr @l___private_Lean_Compiler_LCNF_CompilerM_0__Lean_Compiler_LCNF_normExprImp_go(ptr noundef %0, i8 noundef zeroext %1, ptr noundef %25)
  br i1 %.not, label %48, label %lean_dec.exit46

48:                                               ; preds = %lean_inc.exit
  %49 = load i32, ptr %15, align 4, !tbaa !8
  %50 = icmp sgt i32 %49, 1
  br i1 %50, label %51, label %53, !prof !11

51:                                               ; preds = %48
  %52 = add nsw i32 %49, -1
  store i32 %52, ptr %15, align 4, !tbaa !8
  br label %lean_dec.exit46

53:                                               ; preds = %48
  %.not.i = icmp eq i32 %49, 0
  br i1 %.not.i, label %lean_dec.exit46, label %54

54:                                               ; preds = %53
  tail call void @lean_dec_ref_cold(ptr noundef nonnull %15) #6
  br label %lean_dec.exit46

lean_dec.exit46:                                  ; preds = %54, %53, %51, %lean_inc.exit
  %55 = ptrtoint ptr %40 to i64
  %.not75 = icmp eq ptr %15, %40
  br i1 %.not75, label %72, label %56

56:                                               ; preds = %lean_dec.exit46
  br i1 %.not74, label %57, label %lean_dec.exit45

57:                                               ; preds = %56
  %58 = load i32, ptr %25, align 4, !tbaa !8
  %59 = icmp sgt i32 %58, 1
  br i1 %59, label %60, label %62, !prof !11

60:                                               ; preds = %57
  %61 = add nsw i32 %58, -1
  store i32 %61, ptr %25, align 4, !tbaa !8
  br label %lean_dec.exit45

62:                                               ; preds = %57
  %.not.i50 = icmp eq i32 %58, 0
  br i1 %.not.i50, label %lean_dec.exit45, label %63

63:                                               ; preds = %62
  tail call void @lean_dec_ref_cold(ptr noundef nonnull %25) #6
  br label %lean_dec.exit45

lean_dec.exit45:                                  ; preds = %63, %62, %60, %56
  br i1 %.not.i62, label %64, label %lean_dec.exit44

64:                                               ; preds = %lean_dec.exit45
  %65 = load i32, ptr %2, align 4, !tbaa !8
  %66 = icmp sgt i32 %65, 1
  br i1 %66, label %67, label %69, !prof !11

67:                                               ; preds = %64
  %68 = add nsw i32 %65, -1
  store i32 %68, ptr %2, align 4, !tbaa !8
  br label %lean_dec.exit44

69:                                               ; preds = %64
  %.not.i52 = icmp eq i32 %65, 0
  br i1 %.not.i52, label %lean_dec.exit44, label %70

70:                                               ; preds = %69
  tail call void @lean_dec_ref_cold(ptr noundef nonnull %2) #6
  br label %lean_dec.exit44

lean_dec.exit44:                                  ; preds = %70, %69, %67, %lean_dec.exit45
  %71 = tail call ptr @l_Lean_Expr_app___override(ptr noundef %40, ptr noundef %47) #6
  br label %lean_dec.exit

72:                                               ; preds = %lean_dec.exit46
  br i1 %.not74, label %73, label %lean_dec.exit43.thread

73:                                               ; preds = %72
  %74 = load i32, ptr %25, align 4, !tbaa !8
  %75 = icmp sgt i32 %74, 1
  br i1 %75, label %76, label %78, !prof !11

76:                                               ; preds = %73
  %77 = add nsw i32 %74, -1
  store i32 %77, ptr %25, align 4, !tbaa !8
  br label %lean_dec.exit43

78:                                               ; preds = %73
  %.not.i54 = icmp eq i32 %74, 0
  br i1 %.not.i54, label %lean_dec.exit43, label %79

79:                                               ; preds = %78
  tail call void @lean_dec_ref_cold(ptr noundef nonnull %25) #6
  br label %lean_dec.exit43

lean_dec.exit43:                                  ; preds = %79, %78, %76
  %.not76 = icmp eq ptr %25, %47
  br i1 %.not76, label %89, label %80

lean_dec.exit43.thread:                           ; preds = %72
  %.not7681 = icmp eq ptr %25, %47
  br i1 %.not7681, label %lean_dec.exit41, label %80

80:                                               ; preds = %lean_dec.exit43.thread, %lean_dec.exit43
  br i1 %.not.i62, label %81, label %lean_dec.exit42

81:                                               ; preds = %80
  %82 = load i32, ptr %2, align 4, !tbaa !8
  %83 = icmp sgt i32 %82, 1
  br i1 %83, label %84, label %86, !prof !11

84:                                               ; preds = %81
  %85 = add nsw i32 %82, -1
  store i32 %85, ptr %2, align 4, !tbaa !8
  br label %lean_dec.exit42

86:                                               ; preds = %81
  %.not.i56 = icmp eq i32 %82, 0
  br i1 %.not.i56, label %lean_dec.exit42, label %87

87:                                               ; preds = %86
  tail call void @lean_dec_ref_cold(ptr noundef nonnull %2) #6
  br label %lean_dec.exit42

lean_dec.exit42:                                  ; preds = %87, %86, %84, %80
  %88 = tail call ptr @l_Lean_Expr_app___override(ptr noundef %40, ptr noundef %47) #6
  br label %lean_dec.exit

89:                                               ; preds = %lean_dec.exit43
  %90 = load i32, ptr %47, align 4, !tbaa !8
  %91 = icmp sgt i32 %90, 1
  br i1 %91, label %92, label %94, !prof !11

92:                                               ; preds = %89
  %93 = add nsw i32 %90, -1
  store i32 %93, ptr %47, align 4, !tbaa !8
  br label %lean_dec.exit41

94:                                               ; preds = %89
  %.not.i58 = icmp eq i32 %90, 0
  br i1 %.not.i58, label %lean_dec.exit41, label %95

95:                                               ; preds = %94
  tail call void @lean_dec_ref_cold(ptr noundef nonnull %47) #6
  br label %lean_dec.exit41

lean_dec.exit41:                                  ; preds = %lean_dec.exit43.thread, %95, %94, %92
  %96 = and i64 %55, 1
  %.not78 = icmp eq i64 %96, 0
  br i1 %.not78, label %97, label %lean_dec.exit

97:                                               ; preds = %lean_dec.exit41
  %98 = load i32, ptr %40, align 4, !tbaa !8
  %99 = icmp sgt i32 %98, 1
  br i1 %99, label %100, label %102, !prof !11

100:                                              ; preds = %97
  %101 = add nsw i32 %98, -1
  store i32 %101, ptr %40, align 4, !tbaa !8
  br label %lean_dec.exit

102:                                              ; preds = %97
  %.not.i60 = icmp eq i32 %98, 0
  br i1 %.not.i60, label %lean_dec.exit, label %103

103:                                              ; preds = %102
  tail call void @lean_dec_ref_cold(ptr noundef nonnull %40) #6
  br label %lean_dec.exit

104:                                              ; preds = %lean_obj_tag.exit
  %105 = tail call ptr @l___private_Lean_Compiler_LCNF_CompilerM_0__Lean_Compiler_LCNF_normExprImp_go(ptr noundef %0, i8 noundef zeroext %1, ptr noundef %2)
  br label %lean_dec.exit

lean_dec.exit:                                    ; preds = %lean_dec.exit41, %100, %102, %103, %lean_dec.exit44, %lean_dec.exit42, %104
  %.2 = phi ptr [ %105, %104 ], [ %71, %lean_dec.exit44 ], [ %88, %lean_dec.exit42 ], [ %2, %103 ], [ %2, %102 ], [ %2, %100 ], [ %2, %lean_dec.exit41 ]
  ret ptr %.2
}